
I2C.elf:     file format elf32-avr

Sections:
Idx Name          Size      VMA       LMA       File off  Algn
  0 .data         00000000  00800100  00800100  000004c8  2**0
                  CONTENTS, ALLOC, LOAD, DATA
  1 .text         00000454  00000000  00000000  00000074  2**1
                  CONTENTS, ALLOC, LOAD, READONLY, CODE
  2 .bss          0000001c  00800100  00800100  000004c8  2**0
                  ALLOC
  3 .comment      00000030  00000000  00000000  000004c8  2**0
                  CONTENTS, READONLY
  4 .note.gnu.avr.deviceinfo 00000040  00000000  00000000  000004f8  2**2
                  CONTENTS, READONLY
  5 .debug_aranges 00000090  00000000  00000000  00000538  2**0
                  CONTENTS, READONLY, DEBUGGING
  6 .debug_info   00000d14  00000000  00000000  000005c8  2**0
                  CONTENTS, READONLY, DEBUGGING
  7 .debug_abbrev 000007d8  00000000  00000000  000012dc  2**0
                  CONTENTS, READONLY, DEBUGGING
  8 .debug_line   000006a3  00000000  00000000  00001ab4  2**0
                  CONTENTS, READONLY, DEBUGGING
  9 .debug_frame  00000120  00000000  00000000  00002158  2**2
                  CONTENTS, READONLY, DEBUGGING
 10 .debug_str    00000488  00000000  00000000  00002278  2**0
                  CONTENTS, READONLY, DEBUGGING
 11 .debug_loc    00000382  00000000  00000000  00002700  2**0
                  CONTENTS, READONLY, DEBUGGING
 12 .debug_ranges 00000070  00000000  00000000  00002a82  2**0
                  CONTENTS, READONLY, DEBUGGING

Disassembly of section .text:

00000000 <__vectors>:
   0:	0c 94 34 00 	jmp	0x68	; 0x68 <__ctors_end>
   4:	0c 94 46 00 	jmp	0x8c	; 0x8c <__bad_interrupt>
   8:	0c 94 46 00 	jmp	0x8c	; 0x8c <__bad_interrupt>
   c:	0c 94 46 00 	jmp	0x8c	; 0x8c <__bad_interrupt>
  10:	0c 94 46 00 	jmp	0x8c	; 0x8c <__bad_interrupt>
  14:	0c 94 46 00 	jmp	0x8c	; 0x8c <__bad_interrupt>
  18:	0c 94 46 00 	jmp	0x8c	; 0x8c <__bad_interrupt>
  1c:	0c 94 46 00 	jmp	0x8c	; 0x8c <__bad_interrupt>
  20:	0c 94 46 00 	jmp	0x8c	; 0x8c <__bad_interrupt>
  24:	0c 94 46 00 	jmp	0x8c	; 0x8c <__bad_interrupt>
  28:	0c 94 46 00 	jmp	0x8c	; 0x8c <__bad_interrupt>
  2c:	0c 94 46 00 	jmp	0x8c	; 0x8c <__bad_interrupt>
  30:	0c 94 46 00 	jmp	0x8c	; 0x8c <__bad_interrupt>
  34:	0c 94 46 00 	jmp	0x8c	; 0x8c <__bad_interrupt>
  38:	0c 94 46 00 	jmp	0x8c	; 0x8c <__bad_interrupt>
  3c:	0c 94 46 00 	jmp	0x8c	; 0x8c <__bad_interrupt>
  40:	0c 94 46 00 	jmp	0x8c	; 0x8c <__bad_interrupt>
  44:	0c 94 46 00 	jmp	0x8c	; 0x8c <__bad_interrupt>
  48:	0c 94 46 00 	jmp	0x8c	; 0x8c <__bad_interrupt>
  4c:	0c 94 46 00 	jmp	0x8c	; 0x8c <__bad_interrupt>
  50:	0c 94 46 00 	jmp	0x8c	; 0x8c <__bad_interrupt>
  54:	0c 94 46 00 	jmp	0x8c	; 0x8c <__bad_interrupt>
  58:	0c 94 46 00 	jmp	0x8c	; 0x8c <__bad_interrupt>
  5c:	0c 94 46 00 	jmp	0x8c	; 0x8c <__bad_interrupt>
  60:	0c 94 46 00 	jmp	0x8c	; 0x8c <__bad_interrupt>
  64:	0c 94 46 00 	jmp	0x8c	; 0x8c <__bad_interrupt>

00000068 <__ctors_end>:
  68:	11 24       	eor	r1, r1
  6a:	1f be       	out	0x3f, r1	; 63
  6c:	cf ef       	ldi	r28, 0xFF	; 255
  6e:	d8 e0       	ldi	r29, 0x08	; 8
  70:	de bf       	out	0x3e, r29	; 62
  72:	cd bf       	out	0x3d, r28	; 61

00000074 <__do_clear_bss>:
  74:	21 e0       	ldi	r18, 0x01	; 1
  76:	a0 e0       	ldi	r26, 0x00	; 0
  78:	b1 e0       	ldi	r27, 0x01	; 1
  7a:	01 c0       	rjmp	.+2      	; 0x7e <.do_clear_bss_start>

0000007c <.do_clear_bss_loop>:
  7c:	1d 92       	st	X+, r1

0000007e <.do_clear_bss_start>:
  7e:	ac 31       	cpi	r26, 0x1C	; 28
  80:	b2 07       	cpc	r27, r18
  82:	e1 f7       	brne	.-8      	; 0x7c <.do_clear_bss_loop>
  84:	0e 94 e0 01 	call	0x3c0	; 0x3c0 <main>
  88:	0c 94 28 02 	jmp	0x450	; 0x450 <_exit>

0000008c <__bad_interrupt>:
  8c:	0c 94 00 00 	jmp	0	; 0x0 <__vectors>

00000090 <I2C_Init>:
	return 1;												/* If yes then return 1 to indicate ack received i.e. ready to accept data byte */
	if (status == 0x20)										/* Check weather SLA+W transmitted & nack received or not? */
	return 2;												/* If yes then return 2 to indicate nack received i.e. device is busy */
	else
	return 3;												/* Else return 3 to indicate SLA+W failed */
}
  90:	10 92 b9 00 	sts	0x00B9, r1	; 0x8000b9 <__TEXT_REGION_LENGTH__+0x7e00b9>
  94:	80 e2       	ldi	r24, 0x20	; 32
  96:	80 93 b8 00 	sts	0x00B8, r24	; 0x8000b8 <__TEXT_REGION_LENGTH__+0x7e00b8>
  9a:	08 95       	ret

0000009c <I2C_Repeated_Start>:

uint8_t I2C_Repeated_Start(char slave_read_address)			/* I2C repeated start function */
{
	uint8_t status;											/* Declare variable */
	TWCR = (1<<TWSTA)|(1<<TWEN)|(1<<TWINT);					/* Enable TWI, generate start condition and clear interrupt flag */
  9c:	94 ea       	ldi	r25, 0xA4	; 164
  9e:	90 93 bc 00 	sts	0x00BC, r25	; 0x8000bc <__TEXT_REGION_LENGTH__+0x7e00bc>
	while (!(TWCR & (1<<TWINT)));							/* Wait until TWI finish its current job (start condition) */
  a2:	ec eb       	ldi	r30, 0xBC	; 188
  a4:	f0 e0       	ldi	r31, 0x00	; 0
  a6:	90 81       	ld	r25, Z
  a8:	99 23       	and	r25, r25
  aa:	ec f7       	brge	.-6      	; 0xa6 <I2C_Repeated_Start+0xa>
	status = TWSR & 0xF8;									/* Read TWI status register with masking lower three bits */
  ac:	90 91 b9 00 	lds	r25, 0x00B9	; 0x8000b9 <__TEXT_REGION_LENGTH__+0x7e00b9>
	if (status != 0x10)										/* Check weather repeated start condition transmitted successfully or not? */
  b0:	98 7f       	andi	r25, 0xF8	; 248
  b2:	90 31       	cpi	r25, 0x10	; 16
  b4:	99 f4       	brne	.+38     	; 0xdc <I2C_Repeated_Start+0x40>
	return 0;												/* If no then return 0 to indicate repeated start condition fail */
	TWDR = slave_read_address;								/* If yes then write SLA+R in TWI data register */
  b6:	80 93 bb 00 	sts	0x00BB, r24	; 0x8000bb <__TEXT_REGION_LENGTH__+0x7e00bb>
	TWCR = (1<<TWEN)|(1<<TWINT);							/* Enable TWI and clear interrupt flag */
  ba:	84 e8       	ldi	r24, 0x84	; 132
  bc:	80 93 bc 00 	sts	0x00BC, r24	; 0x8000bc <__TEXT_REGION_LENGTH__+0x7e00bc>
	while (!(TWCR & (1<<TWINT)));							/* Wait until TWI finish its current job (Write operation) */
  c0:	ec eb       	ldi	r30, 0xBC	; 188
  c2:	f0 e0       	ldi	r31, 0x00	; 0
  c4:	80 81       	ld	r24, Z
  c6:	88 23       	and	r24, r24
  c8:	ec f7       	brge	.-6      	; 0xc4 <I2C_Repeated_Start+0x28>
	status = TWSR & 0xF8;									/* Read TWI status register with masking lower three bits */
  ca:	80 91 b9 00 	lds	r24, 0x00B9	; 0x8000b9 <__TEXT_REGION_LENGTH__+0x7e00b9>
  ce:	88 7f       	andi	r24, 0xF8	; 248
	if (status == 0x40)										/* Check weather SLA+R transmitted & ack received or not? */
  d0:	80 34       	cpi	r24, 0x40	; 64
  d2:	31 f0       	breq	.+12     	; 0xe0 <I2C_Repeated_Start+0x44>
	return 1;												/* If yes then return 1 to indicate ack received */ 
	if (status == 0x20)										/* Check weather SLA+R transmitted & nack received or not? */
  d4:	80 32       	cpi	r24, 0x20	; 32
  d6:	31 f0       	breq	.+12     	; 0xe4 <I2C_Repeated_Start+0x48>
	return 2;												/* If yes then return 2 to indicate nack received i.e. device is busy */
	else
	return 3;												/* Else return 3 to indicate SLA+W failed */
  d8:	83 e0       	ldi	r24, 0x03	; 3
  da:	08 95       	ret
	uint8_t status;											/* Declare variable */
	TWCR = (1<<TWSTA)|(1<<TWEN)|(1<<TWINT);					/* Enable TWI, generate start condition and clear interrupt flag */
	while (!(TWCR & (1<<TWINT)));							/* Wait until TWI finish its current job (start condition) */
	status = TWSR & 0xF8;									/* Read TWI status register with masking lower three bits */
	if (status != 0x10)										/* Check weather repeated start condition transmitted successfully or not? */
	return 0;												/* If no then return 0 to indicate repeated start condition fail */
  dc:	80 e0       	ldi	r24, 0x00	; 0
  de:	08 95       	ret
	TWDR = slave_read_address;								/* If yes then write SLA+R in TWI data register */
	TWCR = (1<<TWEN)|(1<<TWINT);							/* Enable TWI and clear interrupt flag */
	while (!(TWCR & (1<<TWINT)));							/* Wait until TWI finish its current job (Write operation) */
	status = TWSR & 0xF8;									/* Read TWI status register with masking lower three bits */
	if (status == 0x40)										/* Check weather SLA+R transmitted & ack received or not? */
	return 1;												/* If yes then return 1 to indicate ack received */ 
  e0:	81 e0       	ldi	r24, 0x01	; 1
  e2:	08 95       	ret
	if (status == 0x20)										/* Check weather SLA+R transmitted & nack received or not? */
	return 2;												/* If yes then return 2 to indicate nack received i.e. device is busy */
  e4:	82 e0       	ldi	r24, 0x02	; 2
	else
	return 3;												/* Else return 3 to indicate SLA+W failed */
}
  e6:	08 95       	ret

000000e8 <I2C_Stop>:

void I2C_Stop()												/* I2C stop function */
{
	TWCR=(1<<TWSTO)|(1<<TWINT)|(1<<TWEN);					/* Enable TWI, generate stop condition and clear interrupt flag */
  e8:	84 e9       	ldi	r24, 0x94	; 148
  ea:	80 93 bc 00 	sts	0x00BC, r24	; 0x8000bc <__TEXT_REGION_LENGTH__+0x7e00bc>
	while(TWCR & (1<<TWSTO));								/* Wait until stop condition execution */ 
  ee:	ec eb       	ldi	r30, 0xBC	; 188
  f0:	f0 e0       	ldi	r31, 0x00	; 0
  f2:	80 81       	ld	r24, Z
  f4:	84 fd       	sbrc	r24, 4
  f6:	fd cf       	rjmp	.-6      	; 0xf2 <I2C_Stop+0xa>
}
  f8:	08 95       	ret

000000fa <I2C_Start_Wait>:

void I2C_Start_Wait(char slave_write_address)				/* I2C start wait function */
{
  fa:	bf 92       	push	r11
  fc:	cf 92       	push	r12
  fe:	df 92       	push	r13
 100:	ef 92       	push	r14
 102:	ff 92       	push	r15
 104:	0f 93       	push	r16
 106:	1f 93       	push	r17
 108:	cf 93       	push	r28
 10a:	df 93       	push	r29
 10c:	b8 2e       	mov	r11, r24
	uint8_t status;											/* Declare variable */
	while (1)
	{
		TWCR = (1<<TWSTA)|(1<<TWEN)|(1<<TWINT);				/* Enable TWI, generate start condition and clear interrupt flag */
 10e:	cc eb       	ldi	r28, 0xBC	; 188
 110:	d0 e0       	ldi	r29, 0x00	; 0
 112:	0f 2e       	mov	r0, r31
 114:	f4 ea       	ldi	r31, 0xA4	; 164
 116:	df 2e       	mov	r13, r31
 118:	f0 2d       	mov	r31, r0
		while (!(TWCR & (1<<TWINT)));						/* Wait until TWI finish its current job (start condition) */
		status = TWSR & 0xF8;								/* Read TWI status register with masking lower three bits */
 11a:	09 eb       	ldi	r16, 0xB9	; 185
 11c:	10 e0       	ldi	r17, 0x00	; 0
		if (status != 0x08)									/* Check weather start condition transmitted successfully or not? */
		continue;											/* If no then continue with start loop again */
		TWDR = slave_write_address;							/* If yes then write SLA+W in TWI data register */
 11e:	0f 2e       	mov	r0, r31
 120:	fb eb       	ldi	r31, 0xBB	; 187
 122:	ef 2e       	mov	r14, r31
 124:	f1 2c       	mov	r15, r1
 126:	f0 2d       	mov	r31, r0
		TWCR = (1<<TWEN)|(1<<TWINT);						/* Enable TWI and clear interrupt flag */
 128:	0f 2e       	mov	r0, r31
 12a:	f4 e8       	ldi	r31, 0x84	; 132
 12c:	cf 2e       	mov	r12, r31
 12e:	f0 2d       	mov	r31, r0
void I2C_Start_Wait(char slave_write_address)				/* I2C start wait function */
{
	uint8_t status;											/* Declare variable */
	while (1)
	{
		TWCR = (1<<TWSTA)|(1<<TWEN)|(1<<TWINT);				/* Enable TWI, generate start condition and clear interrupt flag */
 130:	d8 82       	st	Y, r13
		while (!(TWCR & (1<<TWINT)));						/* Wait until TWI finish its current job (start condition) */
 132:	88 81       	ld	r24, Y
 134:	88 23       	and	r24, r24
 136:	ec f7       	brge	.-6      	; 0x132 <I2C_Start_Wait+0x38>
		status = TWSR & 0xF8;								/* Read TWI status register with masking lower three bits */
 138:	f8 01       	movw	r30, r16
 13a:	80 81       	ld	r24, Z
		if (status != 0x08)									/* Check weather start condition transmitted successfully or not? */
 13c:	88 7f       	andi	r24, 0xF8	; 248
 13e:	88 30       	cpi	r24, 0x08	; 8
 140:	b9 f7       	brne	.-18     	; 0x130 <I2C_Start_Wait+0x36>
		continue;											/* If no then continue with start loop again */
		TWDR = slave_write_address;							/* If yes then write SLA+W in TWI data register */
 142:	f7 01       	movw	r30, r14
 144:	b0 82       	st	Z, r11
		TWCR = (1<<TWEN)|(1<<TWINT);						/* Enable TWI and clear interrupt flag */
 146:	c8 82       	st	Y, r12
		while (!(TWCR & (1<<TWINT)));						/* Wait until TWI finish its current job (Write operation) */
 148:	88 81       	ld	r24, Y
 14a:	88 23       	and	r24, r24
 14c:	ec f7       	brge	.-6      	; 0x148 <I2C_Start_Wait+0x4e>
		status = TWSR & 0xF8;								/* Read TWI status register with masking lower three bits */
 14e:	f8 01       	movw	r30, r16
 150:	80 81       	ld	r24, Z
		if (status != 0x18 )								/* Check weather SLA+W transmitted & ack received or not? */
 152:	88 7f       	andi	r24, 0xF8	; 248
 154:	88 31       	cpi	r24, 0x18	; 24
 156:	19 f0       	breq	.+6      	; 0x15e <I2C_Start_Wait+0x64>
		{
			I2C_Stop();										/* If not then generate stop condition */
 158:	0e 94 74 00 	call	0xe8	; 0xe8 <I2C_Stop>
			continue;										/* continue with start loop again */
 15c:	e9 cf       	rjmp	.-46     	; 0x130 <I2C_Start_Wait+0x36>
		}
		break;												/* If yes then break loop */
	}
}
 15e:	df 91       	pop	r29
 160:	cf 91       	pop	r28
 162:	1f 91       	pop	r17
 164:	0f 91       	pop	r16
 166:	ff 90       	pop	r15
 168:	ef 90       	pop	r14
 16a:	df 90       	pop	r13
 16c:	cf 90       	pop	r12
 16e:	bf 90       	pop	r11
 170:	08 95       	ret

00000172 <I2C_Write>:

uint8_t I2C_Write(char data)								/* I2C write function */
{
	uint8_t status;											/* Declare variable */
	TWDR = data;											/* Copy data in TWI data register */
 172:	80 93 bb 00 	sts	0x00BB, r24	; 0x8000bb <__TEXT_REGION_LENGTH__+0x7e00bb>
	TWCR = (1<<TWEN)|(1<<TWINT);							/* Enable TWI and clear interrupt flag */
 176:	84 e8       	ldi	r24, 0x84	; 132
 178:	80 93 bc 00 	sts	0x00BC, r24	; 0x8000bc <__TEXT_REGION_LENGTH__+0x7e00bc>
	while (!(TWCR & (1<<TWINT)));							/* Wait until TWI finish its current job (Write operation) */
 17c:	ec eb       	ldi	r30, 0xBC	; 188
 17e:	f0 e0       	ldi	r31, 0x00	; 0
 180:	80 81       	ld	r24, Z
 182:	88 23       	and	r24, r24
 184:	ec f7       	brge	.-6      	; 0x180 <I2C_Write+0xe>
	status = TWSR & 0xF8;									/* Read TWI status register with masking lower three bits */
 186:	80 91 b9 00 	lds	r24, 0x00B9	; 0x8000b9 <__TEXT_REGION_LENGTH__+0x7e00b9>
 18a:	88 7f       	andi	r24, 0xF8	; 248
	if (status == 0x28)										/* Check weather data transmitted & ack received or not? */
 18c:	88 32       	cpi	r24, 0x28	; 40
 18e:	21 f0       	breq	.+8      	; 0x198 <I2C_Write+0x26>
	return 0;												/* If yes then return 0 to indicate ack received */
	if (status == 0x30)										/* Check weather data transmitted & nack received or not? */
 190:	80 33       	cpi	r24, 0x30	; 48
 192:	21 f0       	breq	.+8      	; 0x19c <I2C_Write+0x2a>
	return 1;												/* If yes then return 1 to indicate nack received */
	else
	return 2;												/* Else return 2 to indicate data transmission failed */
 194:	82 e0       	ldi	r24, 0x02	; 2
 196:	08 95       	ret
	TWDR = data;											/* Copy data in TWI data register */
	TWCR = (1<<TWEN)|(1<<TWINT);							/* Enable TWI and clear interrupt flag */
	while (!(TWCR & (1<<TWINT)));							/* Wait until TWI finish its current job (Write operation) */
	status = TWSR & 0xF8;									/* Read TWI status register with masking lower three bits */
	if (status == 0x28)										/* Check weather data transmitted & ack received or not? */
	return 0;												/* If yes then return 0 to indicate ack received */
 198:	80 e0       	ldi	r24, 0x00	; 0
 19a:	08 95       	ret
	if (status == 0x30)										/* Check weather data transmitted & nack received or not? */
	return 1;												/* If yes then return 1 to indicate nack received */
 19c:	81 e0       	ldi	r24, 0x01	; 1
	else
	return 2;												/* Else return 2 to indicate data transmission failed */
}
 19e:	08 95       	ret

000001a0 <I2C_Read_Ack>:

char I2C_Read_Ack()										/* I2C read ack function */
{
	TWCR=(1<<TWEN)|(1<<TWINT)|(1<<TWEA);					/* Enable TWI, generation of ack and clear interrupt flag */
 1a0:	84 ec       	ldi	r24, 0xC4	; 196
 1a2:	80 93 bc 00 	sts	0x00BC, r24	; 0x8000bc <__TEXT_REGION_LENGTH__+0x7e00bc>
	while (!(TWCR & (1<<TWINT)));							/* Wait until TWI finish its current job (read operation) */
 1a6:	ec eb       	ldi	r30, 0xBC	; 188
 1a8:	f0 e0       	ldi	r31, 0x00	; 0
 1aa:	80 81       	ld	r24, Z
 1ac:	88 23       	and	r24, r24
 1ae:	ec f7       	brge	.-6      	; 0x1aa <I2C_Read_Ack+0xa>
	return TWDR;											/* Return received data */
 1b0:	80 91 bb 00 	lds	r24, 0x00BB	; 0x8000bb <__TEXT_REGION_LENGTH__+0x7e00bb>
}	
 1b4:	08 95       	ret

000001b6 <I2C_Read_Nack>:

char I2C_Read_Nack()										/* I2C read nack function */
{
	TWCR=(1<<TWEN)|(1<<TWINT);								/* Enable TWI and clear interrupt flag */
 1b6:	84 e8       	ldi	r24, 0x84	; 132
 1b8:	80 93 bc 00 	sts	0x00BC, r24	; 0x8000bc <__TEXT_REGION_LENGTH__+0x7e00bc>
	while (!(TWCR & (1<<TWINT)));							/* Wait until TWI finish its current job (read operation) */
 1bc:	ec eb       	ldi	r30, 0xBC	; 188
 1be:	f0 e0       	ldi	r31, 0x00	; 0
 1c0:	80 81       	ld	r24, Z
 1c2:	88 23       	and	r24, r24
 1c4:	ec f7       	brge	.-6      	; 0x1c0 <I2C_Read_Nack+0xa>
	return TWDR;											/* Return received data */
 1c6:	80 91 bb 00 	lds	r24, 0x00BB	; 0x8000bb <__TEXT_REGION_LENGTH__+0x7e00bb>
}	
 1ca:	08 95       	ret

000001cc <MPU6050_Init>:
	#else
		//round up by default
		__ticks_dc = (uint32_t)(ceil(fabs(__tmp)));
	#endif

	__builtin_avr_delay_cycles(__ticks_dc);
 1cc:	2f ef       	ldi	r18, 0xFF	; 255
 1ce:	82 e5       	ldi	r24, 0x52	; 82
 1d0:	97 e0       	ldi	r25, 0x07	; 7
 1d2:	21 50       	subi	r18, 0x01	; 1
 1d4:	80 40       	sbci	r24, 0x00	; 0
 1d6:	90 40       	sbci	r25, 0x00	; 0
 1d8:	e1 f7       	brne	.-8      	; 0x1d2 <MPU6050_Init+0x6>
 1da:	00 c0       	rjmp	.+0      	; 0x1dc <MPU6050_Init+0x10>
 1dc:	00 00       	nop
float Acc_x,Acc_y,Acc_z,Temperature,Gyro_x,Gyro_y,Gyro_z;

void MPU6050_Init()										/* Gyro initialization function */
{
	_delay_ms(150);										/* Power up time >100ms */
	I2C_Start_Wait(0xD0);								/* Start with device write address */
 1de:	80 ed       	ldi	r24, 0xD0	; 208
 1e0:	0e 94 7d 00 	call	0xfa	; 0xfa <I2C_Start_Wait>
	I2C_Write(SMPLRT_DIV);								/* Write to sample rate register */
 1e4:	89 e1       	ldi	r24, 0x19	; 25
 1e6:	0e 94 b9 00 	call	0x172	; 0x172 <I2C_Write>
	I2C_Write(0x07);									/* 1KHz sample rate */
 1ea:	87 e0       	ldi	r24, 0x07	; 7
 1ec:	0e 94 b9 00 	call	0x172	; 0x172 <I2C_Write>
	I2C_Stop();
 1f0:	0e 94 74 00 	call	0xe8	; 0xe8 <I2C_Stop>

	I2C_Start_Wait(0xD0);
 1f4:	80 ed       	ldi	r24, 0xD0	; 208
 1f6:	0e 94 7d 00 	call	0xfa	; 0xfa <I2C_Start_Wait>
	I2C_Write(PWR_MGMT_1);								/* Write to power management register */
 1fa:	8b e6       	ldi	r24, 0x6B	; 107
 1fc:	0e 94 b9 00 	call	0x172	; 0x172 <I2C_Write>
	I2C_Write(0x01);									/* X axis gyroscope reference frequency */
 200:	81 e0       	ldi	r24, 0x01	; 1
 202:	0e 94 b9 00 	call	0x172	; 0x172 <I2C_Write>
	I2C_Stop();
 206:	0e 94 74 00 	call	0xe8	; 0xe8 <I2C_Stop>

	I2C_Start_Wait(0xD0);
 20a:	80 ed       	ldi	r24, 0xD0	; 208
 20c:	0e 94 7d 00 	call	0xfa	; 0xfa <I2C_Start_Wait>
	I2C_Write(CONFIG);									/* Write to Configuration register */
 210:	8a e1       	ldi	r24, 0x1A	; 26
 212:	0e 94 b9 00 	call	0x172	; 0x172 <I2C_Write>
	I2C_Write(0x00);									/* Fs = 8KHz */
 216:	80 e0       	ldi	r24, 0x00	; 0
 218:	0e 94 b9 00 	call	0x172	; 0x172 <I2C_Write>
	I2C_Stop();
 21c:	0e 94 74 00 	call	0xe8	; 0xe8 <I2C_Stop>

	I2C_Start_Wait(0xD0);
 220:	80 ed       	ldi	r24, 0xD0	; 208
 222:	0e 94 7d 00 	call	0xfa	; 0xfa <I2C_Start_Wait>
	I2C_Write(GYRO_CONFIG);								/* Write to Gyro configuration register */
 226:	8b e1       	ldi	r24, 0x1B	; 27
 228:	0e 94 b9 00 	call	0x172	; 0x172 <I2C_Write>
	I2C_Write(0x18);									/* Full scale range +/- 2000 degree/C */
 22c:	88 e1       	ldi	r24, 0x18	; 24
 22e:	0e 94 b9 00 	call	0x172	; 0x172 <I2C_Write>
	I2C_Stop();
 232:	0e 94 74 00 	call	0xe8	; 0xe8 <I2C_Stop>

	I2C_Start_Wait(0xD0);
 236:	80 ed       	ldi	r24, 0xD0	; 208
 238:	0e 94 7d 00 	call	0xfa	; 0xfa <I2C_Start_Wait>
	I2C_Write(INT_ENABLE);								/* Write to interrupt enable register */
 23c:	88 e3       	ldi	r24, 0x38	; 56
 23e:	0e 94 b9 00 	call	0x172	; 0x172 <I2C_Write>
	I2C_Write(0x01);
 242:	81 e0       	ldi	r24, 0x01	; 1
 244:	0e 94 b9 00 	call	0x172	; 0x172 <I2C_Write>
	I2C_Stop();
 248:	0e 94 74 00 	call	0xe8	; 0xe8 <I2C_Stop>
 24c:	08 95       	ret

0000024e <MPU_Start_Loc>:
}

void MPU_Start_Loc()
{
	I2C_Start_Wait(0xD0);								/* I2C start with device write address */
 24e:	80 ed       	ldi	r24, 0xD0	; 208
 250:	0e 94 7d 00 	call	0xfa	; 0xfa <I2C_Start_Wait>
	I2C_Write(ACCEL_XOUT_H);							/* Write start location address from where to read */ 
 254:	8b e3       	ldi	r24, 0x3B	; 59
 256:	0e 94 b9 00 	call	0x172	; 0x172 <I2C_Write>
	I2C_Repeated_Start(0xD1);							/* I2C start with device read address */
 25a:	81 ed       	ldi	r24, 0xD1	; 209
 25c:	0e 94 4e 00 	call	0x9c	; 0x9c <I2C_Repeated_Start>
 260:	08 95       	ret

00000262 <Read_RawValue>:
}

void Read_RawValue()
{
 262:	cf 93       	push	r28
	MPU_Start_Loc();									/* Read Gyro values */
 264:	0e 94 27 01 	call	0x24e	; 0x24e <MPU_Start_Loc>
	Acc_x = (((int)I2C_Read_Ack()<<8) | (int)I2C_Read_Ack());
 268:	0e 94 d0 00 	call	0x1a0	; 0x1a0 <I2C_Read_Ack>
 26c:	c8 2f       	mov	r28, r24
 26e:	0e 94 d0 00 	call	0x1a0	; 0x1a0 <I2C_Read_Ack>
 272:	6c 2f       	mov	r22, r28
 274:	70 e0       	ldi	r23, 0x00	; 0
 276:	76 2f       	mov	r23, r22
 278:	66 27       	eor	r22, r22
 27a:	68 2b       	or	r22, r24
 27c:	07 2e       	mov	r0, r23
 27e:	00 0c       	add	r0, r0
 280:	88 0b       	sbc	r24, r24
 282:	99 0b       	sbc	r25, r25
 284:	0e 94 ed 01 	call	0x3da	; 0x3da <__floatsisf>
 288:	60 93 14 01 	sts	0x0114, r22	; 0x800114 <Acc_x>
 28c:	70 93 15 01 	sts	0x0115, r23	; 0x800115 <Acc_x+0x1>
 290:	80 93 16 01 	sts	0x0116, r24	; 0x800116 <Acc_x+0x2>
 294:	90 93 17 01 	sts	0x0117, r25	; 0x800117 <Acc_x+0x3>
	Acc_y = (((int)I2C_Read_Ack()<<8) | (int)I2C_Read_Ack());
 298:	0e 94 d0 00 	call	0x1a0	; 0x1a0 <I2C_Read_Ack>
 29c:	c8 2f       	mov	r28, r24
 29e:	0e 94 d0 00 	call	0x1a0	; 0x1a0 <I2C_Read_Ack>
 2a2:	6c 2f       	mov	r22, r28
 2a4:	70 e0       	ldi	r23, 0x00	; 0
 2a6:	76 2f       	mov	r23, r22
 2a8:	66 27       	eor	r22, r22
 2aa:	68 2b       	or	r22, r24
 2ac:	07 2e       	mov	r0, r23
 2ae:	00 0c       	add	r0, r0
 2b0:	88 0b       	sbc	r24, r24
 2b2:	99 0b       	sbc	r25, r25
 2b4:	0e 94 ed 01 	call	0x3da	; 0x3da <__floatsisf>
 2b8:	60 93 0c 01 	sts	0x010C, r22	; 0x80010c <Acc_y>
 2bc:	70 93 0d 01 	sts	0x010D, r23	; 0x80010d <Acc_y+0x1>
 2c0:	80 93 0e 01 	sts	0x010E, r24	; 0x80010e <Acc_y+0x2>
 2c4:	90 93 0f 01 	sts	0x010F, r25	; 0x80010f <Acc_y+0x3>
	Acc_z = (((int)I2C_Read_Ack()<<8) | (int)I2C_Read_Ack());
 2c8:	0e 94 d0 00 	call	0x1a0	; 0x1a0 <I2C_Read_Ack>
 2cc:	c8 2f       	mov	r28, r24
 2ce:	0e 94 d0 00 	call	0x1a0	; 0x1a0 <I2C_Read_Ack>
 2d2:	6c 2f       	mov	r22, r28
 2d4:	70 e0       	ldi	r23, 0x00	; 0
 2d6:	76 2f       	mov	r23, r22
 2d8:	66 27       	eor	r22, r22
 2da:	68 2b       	or	r22, r24
 2dc:	07 2e       	mov	r0, r23
 2de:	00 0c       	add	r0, r0
 2e0:	88 0b       	sbc	r24, r24
 2e2:	99 0b       	sbc	r25, r25
 2e4:	0e 94 ed 01 	call	0x3da	; 0x3da <__floatsisf>
 2e8:	60 93 00 01 	sts	0x0100, r22	; 0x800100 <_edata>
 2ec:	70 93 01 01 	sts	0x0101, r23	; 0x800101 <_edata+0x1>
 2f0:	80 93 02 01 	sts	0x0102, r24	; 0x800102 <_edata+0x2>
 2f4:	90 93 03 01 	sts	0x0103, r25	; 0x800103 <_edata+0x3>
	Temperature = (((int)I2C_Read_Ack()<<8) | (int)I2C_Read_Ack());
 2f8:	0e 94 d0 00 	call	0x1a0	; 0x1a0 <I2C_Read_Ack>
 2fc:	c8 2f       	mov	r28, r24
 2fe:	0e 94 d0 00 	call	0x1a0	; 0x1a0 <I2C_Read_Ack>
 302:	6c 2f       	mov	r22, r28
 304:	70 e0       	ldi	r23, 0x00	; 0
 306:	76 2f       	mov	r23, r22
 308:	66 27       	eor	r22, r22
 30a:	68 2b       	or	r22, r24
 30c:	07 2e       	mov	r0, r23
 30e:	00 0c       	add	r0, r0
 310:	88 0b       	sbc	r24, r24
 312:	99 0b       	sbc	r25, r25
 314:	0e 94 ed 01 	call	0x3da	; 0x3da <__floatsisf>
 318:	60 93 08 01 	sts	0x0108, r22	; 0x800108 <Temperature>
 31c:	70 93 09 01 	sts	0x0109, r23	; 0x800109 <Temperature+0x1>
 320:	80 93 0a 01 	sts	0x010A, r24	; 0x80010a <Temperature+0x2>
 324:	90 93 0b 01 	sts	0x010B, r25	; 0x80010b <Temperature+0x3>
	Gyro_x = (((int)I2C_Read_Ack()<<8) | (int)I2C_Read_Ack());
 328:	0e 94 d0 00 	call	0x1a0	; 0x1a0 <I2C_Read_Ack>
 32c:	c8 2f       	mov	r28, r24
 32e:	0e 94 d0 00 	call	0x1a0	; 0x1a0 <I2C_Read_Ack>
 332:	6c 2f       	mov	r22, r28
 334:	70 e0       	ldi	r23, 0x00	; 0
 336:	76 2f       	mov	r23, r22
 338:	66 27       	eor	r22, r22
 33a:	68 2b       	or	r22, r24
 33c:	07 2e       	mov	r0, r23
 33e:	00 0c       	add	r0, r0
 340:	88 0b       	sbc	r24, r24
 342:	99 0b       	sbc	r25, r25
 344:	0e 94 ed 01 	call	0x3da	; 0x3da <__floatsisf>
 348:	60 93 04 01 	sts	0x0104, r22	; 0x800104 <Gyro_x>
 34c:	70 93 05 01 	sts	0x0105, r23	; 0x800105 <Gyro_x+0x1>
 350:	80 93 06 01 	sts	0x0106, r24	; 0x800106 <Gyro_x+0x2>
 354:	90 93 07 01 	sts	0x0107, r25	; 0x800107 <Gyro_x+0x3>
	Gyro_y = (((int)I2C_Read_Ack()<<8) | (int)I2C_Read_Ack());
 358:	0e 94 d0 00 	call	0x1a0	; 0x1a0 <I2C_Read_Ack>
 35c:	c8 2f       	mov	r28, r24
 35e:	0e 94 d0 00 	call	0x1a0	; 0x1a0 <I2C_Read_Ack>
 362:	6c 2f       	mov	r22, r28
 364:	70 e0       	ldi	r23, 0x00	; 0
 366:	76 2f       	mov	r23, r22
 368:	66 27       	eor	r22, r22
 36a:	68 2b       	or	r22, r24
 36c:	07 2e       	mov	r0, r23
 36e:	00 0c       	add	r0, r0
 370:	88 0b       	sbc	r24, r24
 372:	99 0b       	sbc	r25, r25
 374:	0e 94 ed 01 	call	0x3da	; 0x3da <__floatsisf>
 378:	60 93 18 01 	sts	0x0118, r22	; 0x800118 <Gyro_y>
 37c:	70 93 19 01 	sts	0x0119, r23	; 0x800119 <Gyro_y+0x1>
 380:	80 93 1a 01 	sts	0x011A, r24	; 0x80011a <Gyro_y+0x2>
 384:	90 93 1b 01 	sts	0x011B, r25	; 0x80011b <Gyro_y+0x3>
	Gyro_z = (((int)I2C_Read_Ack()<<8) | (int)I2C_Read_Nack());
 388:	0e 94 d0 00 	call	0x1a0	; 0x1a0 <I2C_Read_Ack>
 38c:	c8 2f       	mov	r28, r24
 38e:	0e 94 db 00 	call	0x1b6	; 0x1b6 <I2C_Read_Nack>
 392:	6c 2f       	mov	r22, r28
 394:	70 e0       	ldi	r23, 0x00	; 0
 396:	76 2f       	mov	r23, r22
 398:	66 27       	eor	r22, r22
 39a:	68 2b       	or	r22, r24
 39c:	07 2e       	mov	r0, r23
 39e:	00 0c       	add	r0, r0
 3a0:	88 0b       	sbc	r24, r24
 3a2:	99 0b       	sbc	r25, r25
 3a4:	0e 94 ed 01 	call	0x3da	; 0x3da <__floatsisf>
 3a8:	60 93 10 01 	sts	0x0110, r22	; 0x800110 <Gyro_z>
 3ac:	70 93 11 01 	sts	0x0111, r23	; 0x800111 <Gyro_z+0x1>
 3b0:	80 93 12 01 	sts	0x0112, r24	; 0x800112 <Gyro_z+0x2>
 3b4:	90 93 13 01 	sts	0x0113, r25	; 0x800113 <Gyro_z+0x3>
	I2C_Stop();
 3b8:	0e 94 74 00 	call	0xe8	; 0xe8 <I2C_Stop>
}
 3bc:	cf 91       	pop	r28
 3be:	08 95       	ret

000003c0 <main>:

int main()
{
	DDRD |= (1<<PIND0);
 3c0:	50 9a       	sbi	0x0a, 0	; 10
	DDRD |= (1<<PIND1);
 3c2:	51 9a       	sbi	0x0a, 1	; 10
	char buffer[20], float_[10];
	float Xa,Ya,Za,t;
	float Xg=0,Yg=0,Zg=0;
	I2C_Init();											/* Initialize I2C */
 3c4:	0e 94 48 00 	call	0x90	; 0x90 <I2C_Init>
	MPU6050_Init();										/* Initialize MPU6050 */
 3c8:	0e 94 e6 00 	call	0x1cc	; 0x1cc <MPU6050_Init>
	
	while(1)
	{
		Read_RawValue();
 3cc:	0e 94 31 01 	call	0x262	; 0x262 <Read_RawValue>
		Xg = Gyro_x/16.4;
		Yg = Gyro_y/16.4;
		Zg = Gyro_z/16.4;

		t = (Temperature/340.00)+36.53;					/* Convert temperature in °/c using formula */
		PORTD |= (1<<PIND0);
 3d0:	58 9a       	sbi	0x0b, 0	; 11
		PORTD |= (1<<PIND1);
 3d2:	59 9a       	sbi	0x0b, 1	; 11
 3d4:	fb cf       	rjmp	.-10     	; 0x3cc <main+0xc>

000003d6 <__floatunsisf>:
 3d6:	e8 94       	clt
 3d8:	09 c0       	rjmp	.+18     	; 0x3ec <__floatsisf+0x12>

000003da <__floatsisf>:
 3da:	97 fb       	bst	r25, 7
 3dc:	3e f4       	brtc	.+14     	; 0x3ec <__floatsisf+0x12>
 3de:	90 95       	com	r25
 3e0:	80 95       	com	r24
 3e2:	70 95       	com	r23
 3e4:	61 95       	neg	r22
 3e6:	7f 4f       	sbci	r23, 0xFF	; 255
 3e8:	8f 4f       	sbci	r24, 0xFF	; 255
 3ea:	9f 4f       	sbci	r25, 0xFF	; 255
 3ec:	99 23       	and	r25, r25
 3ee:	a9 f0       	breq	.+42     	; 0x41a <__LOCK_REGION_LENGTH__+0x1a>
 3f0:	f9 2f       	mov	r31, r25
 3f2:	96 e9       	ldi	r25, 0x96	; 150
 3f4:	bb 27       	eor	r27, r27
 3f6:	93 95       	inc	r25
 3f8:	f6 95       	lsr	r31
 3fa:	87 95       	ror	r24
 3fc:	77 95       	ror	r23
 3fe:	67 95       	ror	r22
 400:	b7 95       	ror	r27
 402:	f1 11       	cpse	r31, r1
 404:	f8 cf       	rjmp	.-16     	; 0x3f6 <__floatsisf+0x1c>
 406:	fa f4       	brpl	.+62     	; 0x446 <__LOCK_REGION_LENGTH__+0x46>
 408:	bb 0f       	add	r27, r27
 40a:	11 f4       	brne	.+4      	; 0x410 <__LOCK_REGION_LENGTH__+0x10>
 40c:	60 ff       	sbrs	r22, 0
 40e:	1b c0       	rjmp	.+54     	; 0x446 <__LOCK_REGION_LENGTH__+0x46>
 410:	6f 5f       	subi	r22, 0xFF	; 255
 412:	7f 4f       	sbci	r23, 0xFF	; 255
 414:	8f 4f       	sbci	r24, 0xFF	; 255
 416:	9f 4f       	sbci	r25, 0xFF	; 255
 418:	16 c0       	rjmp	.+44     	; 0x446 <__LOCK_REGION_LENGTH__+0x46>
 41a:	88 23       	and	r24, r24
 41c:	11 f0       	breq	.+4      	; 0x422 <__LOCK_REGION_LENGTH__+0x22>
 41e:	96 e9       	ldi	r25, 0x96	; 150
 420:	11 c0       	rjmp	.+34     	; 0x444 <__LOCK_REGION_LENGTH__+0x44>
 422:	77 23       	and	r23, r23
 424:	21 f0       	breq	.+8      	; 0x42e <__LOCK_REGION_LENGTH__+0x2e>
 426:	9e e8       	ldi	r25, 0x8E	; 142
 428:	87 2f       	mov	r24, r23
 42a:	76 2f       	mov	r23, r22
 42c:	05 c0       	rjmp	.+10     	; 0x438 <__LOCK_REGION_LENGTH__+0x38>
 42e:	66 23       	and	r22, r22
 430:	71 f0       	breq	.+28     	; 0x44e <__LOCK_REGION_LENGTH__+0x4e>
 432:	96 e8       	ldi	r25, 0x86	; 134
 434:	86 2f       	mov	r24, r22
 436:	70 e0       	ldi	r23, 0x00	; 0
 438:	60 e0       	ldi	r22, 0x00	; 0
 43a:	2a f0       	brmi	.+10     	; 0x446 <__LOCK_REGION_LENGTH__+0x46>
 43c:	9a 95       	dec	r25
 43e:	66 0f       	add	r22, r22
 440:	77 1f       	adc	r23, r23
 442:	88 1f       	adc	r24, r24
 444:	da f7       	brpl	.-10     	; 0x43c <__LOCK_REGION_LENGTH__+0x3c>
 446:	88 0f       	add	r24, r24
 448:	96 95       	lsr	r25
 44a:	87 95       	ror	r24
 44c:	97 f9       	bld	r25, 7
 44e:	08 95       	ret

00000450 <_exit>:
 450:	f8 94       	cli

00000452 <__stop_program>:
 452:	ff cf       	rjmp	.-2      	; 0x452 <__stop_program>
